target datalayout = "e-m:e-p270:32:32-p271:32:32-p272:64:64-i64:64-i128:128-f80:128-n8:16:32:64-S128"
target triple = "x86_64-pc-linux-gnu"

%struct.rb_ractor_basket = type { %union.anon.13, i64, %union.anon.14 }
%union.anon.13 = type { i32 }
%union.anon.14 = type { %struct.anon.15 }
%struct.anon.15 = type { i64, i8 }
%struct.rb_ractor_selector = type { ptr, %struct.rb_ractor_basket, ptr }
%struct.st_table = type { i8, i8, i8, i32, ptr, i64, ptr, i64, i64, ptr }

; Function Attrs: nounwind sspstrong uwtable
define internal i64 @ractor_selector_memsize(ptr noundef %0) #0 {
  %2 = alloca ptr, align 8
  %3 = alloca ptr, align 8
  store ptr %0, ptr %2, align 8, !tbaa !124
  call void @llvm.lifetime.start.p0(i64 8, ptr %3) #16
  %4 = load ptr, ptr %2, align 8, !tbaa !124
  store ptr %4, ptr %3, align 8, !tbaa !134
  %5 = load ptr, ptr %3, align 8, !tbaa !134
  %6 = getelementptr inbounds nuw %struct.rb_ractor_selector, ptr %5, i32 0, i32 2
  %7 = load ptr, ptr %6, align 8, !tbaa !136
  %8 = call i64 @rb_st_memsize(ptr noundef %7) #32
  %9 = add i64 48, %8
  %10 = load ptr, ptr %3, align 8, !tbaa !134
  %11 = getelementptr inbounds nuw %struct.rb_ractor_selector, ptr %10, i32 0, i32 2
  %12 = load ptr, ptr %11, align 8, !tbaa !136
  %13 = getelementptr inbounds nuw %struct.st_table, ptr %12, i32 0, i32 5
  %14 = load i64, ptr %13, align 8, !tbaa !141
  %15 = mul i64 %14, 2
  %16 = add i64 %9, %15
  call void @llvm.lifetime.end.p0(i64 8, ptr %3) #16
  ret i64 %16
}