; Function Attrs: mustprogress nofree nounwind sspstrong willreturn memory(read) uwtable
define internal i64 @ractor_selector_memsize(ptr noundef readonly captures(none) %0) #31 {
  %2 = getelementptr inbounds nuw i8, ptr %0, i64 40
  %3 = load ptr, ptr %2, align 8, !tbaa !138
  %4 = tail call i64 @rb_st_memsize(ptr noundef %3) #38
  %5 = add i64 %4, 48
  %6 = getelementptr inbounds nuw i8, ptr %3, i64 16
  %7 = load i64, ptr %6, align 8, !tbaa !144
  %8 = shl i64 %7, 1
  %9 = add i64 %5, %8
  ret i64 %9
}